target datalayout = "e-m:e-p270:32:32-p271:32:32-p272:64:64-i64:64-i128:128-f80:128-n8:16:32:64-S128"
target triple = "x86_64-unknown-linux-gnu"

%"class.icu_75::TransliterationRule" = type { ptr, ptr, ptr, ptr, ptr, %"class.icu_75::UnicodeString", ptr, i32, i32, i32, i8, ptr }
%"class.icu_75::UnicodeString" = type { %"class.icu_75::Replaceable", %"union.icu_75::UnicodeString::StackBufferOrFields" }
%"class.icu_75::Replaceable" = type { %"class.icu_75::UObject" }
%"class.icu_75::UObject" = type { ptr }
%"union.icu_75::UnicodeString::StackBufferOrFields" = type { %struct.anon.0, [32 x i8] }
%struct.anon.0 = type { i16, i32, i32, ptr }

; Function Attrs: mustprogress uwtable
define void @_ZNK6icu_7519TransliterationRule14addTargetSetToERNS_10UnicodeSetE(ptr noundef nonnull align 8 dereferenceable(136) %this, ptr noundef nonnull align 8 dereferenceable(200) %toUnionTo) #1 align 2 {
entry:
  %this.addr = alloca ptr, align 8
  %toUnionTo.addr = alloca ptr, align 8
  store ptr %this, ptr %this.addr, align 8
  store ptr %toUnionTo, ptr %toUnionTo.addr, align 8
  %this1 = load ptr, ptr %this.addr, align 8
  %output = getelementptr inbounds %"class.icu_75::TransliterationRule", ptr %this1, i32 0, i32 4
  %0 = load ptr, ptr %output, align 8
  %vtable = load ptr, ptr %0, align 8
  %vfn = getelementptr inbounds ptr, ptr %vtable, i64 5
  %1 = load ptr, ptr %vfn, align 8
  %call = call noundef ptr %1(ptr noundef nonnull align 8 dereferenceable(8) %0)
  %2 = load ptr, ptr %toUnionTo.addr, align 8
  %vtable2 = load ptr, ptr %call, align 8
  %vfn3 = getelementptr inbounds ptr, ptr %vtable2, i64 4
  %3 = load ptr, ptr %vfn3, align 8
  call void %3(ptr noundef nonnull align 8 dereferenceable(8) %call, ptr noundef nonnull align 8 dereferenceable(200) %2)
  ret void
}