; Function Attrs: mustprogress uwtable
define void @_ZNK6icu_7519TransliterationRule14addTargetSetToERNS_10UnicodeSetE(ptr nocapture noundef nonnull readonly align 8 dereferenceable(136) %this, ptr noundef nonnull align 8 dereferenceable(200) %toUnionTo) local_unnamed_addr #1 align 2 {
entry:
  %output = getelementptr inbounds i8, ptr %this, i64 32
  %0 = load ptr, ptr %output, align 8
  %vtable = load ptr, ptr %0, align 8
  %vfn = getelementptr inbounds i8, ptr %vtable, i64 40
  %1 = load ptr, ptr %vfn, align 8
  %call = tail call noundef ptr %1(ptr noundef nonnull align 8 dereferenceable(8) %0)
  %vtable2 = load ptr, ptr %call, align 8
  %vfn3 = getelementptr inbounds i8, ptr %vtable2, i64 32
  %2 = load ptr, ptr %vfn3, align 8
  tail call void %2(ptr noundef nonnull align 8 dereferenceable(8) %call, ptr noundef nonnull align 8 dereferenceable(200) %toUnionTo)
  ret void
}